target datalayout = "e-m:e-p270:32:32-p271:32:32-p272:64:64-i64:64-i128:128-f80:128-n8:16:32:64-S128"
target triple = "x86_64-pc-linux-gnu"

%struct.cl_stat = type { ptr, ptr, ptr, i32 }

@dbstat = internal global %struct.cl_stat zeroinitializer, align 8

; Function Attrs: nounwind uwtable
define dso_local i32 @statinidir(ptr noundef %0) #0 {
  %2 = alloca ptr, align 8
  store ptr %0, ptr %2, align 8
  %3 = load i32, ptr getelementptr inbounds (%struct.cl_stat, ptr @dbstat, i32 0, i32 3), align 8
  %4 = icmp ne i32 %3, 0
  br i1 %4, label %6, label %5

5:                                                ; preds = %1
  call void @llvm.memset.p0.i64(ptr align 8 @dbstat, i8 0, i64 32, i1 false)
  br label %6

6:                                                ; preds = %5, %1
  %7 = load ptr, ptr %2, align 8
  %8 = call i32 @cl_statinidir(ptr noundef %7, ptr noundef @dbstat)
  ret i32 %8
}