; Function Attrs: nounwind uwtable
define dso_local i32 @statinidir(ptr noundef %0) local_unnamed_addr #0 {
  %2 = load i32, ptr getelementptr inbounds (%struct.cl_stat, ptr @dbstat, i64 0, i32 3), align 8
  %.not = icmp eq i32 %2, 0
  br i1 %.not, label %3, label %4

3:                                                ; preds = %1
  tail call void @llvm.memset.p0.i64(ptr noundef nonnull align 8 dereferenceable(32) @dbstat, i8 0, i64 32, i1 false)
  br label %4

4:                                                ; preds = %3, %1
  %5 = tail call i32 @cl_statinidir(ptr noundef %0, ptr noundef nonnull @dbstat) #15
  ret i32 %5
}